target datalayout = "e-m:e-p270:32:32-p271:32:32-p272:64:64-i64:64-i128:128-f80:128-n8:16:32:64-S128"
target triple = "x86_64-pc-linux-gnu"

%struct.nettl_file_hdr = type { [12 x i8], [56 x i8], [20 x i8], [9 x i8], [9 x i8], i8, [8 x i8], [11 x i8], i16 }
%struct.wtap_dumper = type { ptr, i32, i32, i32, i32, i8, i64, ptr, ptr, ptr, ptr, ptr, ptr, ptr, ptr, ptr, ptr, ptr, ptr, ptr, i32, i32, i32 }

@nettl_magic_hpux10 = internal constant [12 x i8] c"TR\00d\00\00\00\00\00\00\00\80", align 1
@.str.10 = private unnamed_addr constant [22 x i8] c"/tmp/wireshark.TRC000\00", align 1
@.str.11 = private unnamed_addr constant [4 x i8] c"UTC\00", align 1
@.str.12 = private unnamed_addr constant [1 x i8] zeroinitializer, align 1
@.str.13 = private unnamed_addr constant [8 x i8] c"B.11.11\00", align 1
@.str.14 = private unnamed_addr constant [9 x i8] c"9000/800\00", align 1

; Function Attrs: alwaysinline nounwind
define internal ptr @memcpy.inline(ptr noalias %0, ptr noalias %1, i64 %2) #2 {
  %4 = alloca ptr, align 8
  %5 = alloca ptr, align 8
  %6 = alloca i64, align 8
  store ptr %0, ptr %4, align 8
  store ptr %1, ptr %5, align 8
  store i64 %2, ptr %6, align 8
  %7 = load ptr, ptr %4, align 8
  %8 = load ptr, ptr %5, align 8
  %9 = load i64, ptr %6, align 8
  %10 = load ptr, ptr %4, align 8
  %11 = call i64 @llvm.objectsize.i64.p0(ptr %10, i1 false, i1 true, i1 true)
  %12 = call ptr @__memcpy_chk(ptr noundef %7, ptr noundef %8, i64 noundef %9, i64 noundef %11) #12
  ret ptr %12
}

; Function Attrs: alwaysinline nounwind
define internal ptr @memset.inline(ptr %0, i32 %1, i64 %2) #2 {
  %4 = alloca ptr, align 8
  %5 = alloca i32, align 4
  %6 = alloca i64, align 8
  store ptr %0, ptr %4, align 8
  store i32 %1, ptr %5, align 4
  store i64 %2, ptr %6, align 8
  %7 = load ptr, ptr %4, align 8
  %8 = load i32, ptr %5, align 4
  %9 = load i64, ptr %6, align 8
  %10 = load ptr, ptr %4, align 8
  %11 = call i64 @llvm.objectsize.i64.p0(ptr %10, i1 false, i1 true, i1 true)
  %12 = call ptr @__memset_chk(ptr noundef %7, i32 noundef %8, i64 noundef %9, i64 noundef %11) #12
  ret ptr %12
}

; Function Attrs: null_pointer_is_valid sspstrong uwtable
define internal zeroext i1 @nettl_dump_open(ptr noundef %0, ptr noundef %1, ptr noundef %2) #0 {
  %4 = alloca i1, align 1
  %5 = alloca ptr, align 8
  %6 = alloca ptr, align 8
  %7 = alloca ptr, align 8
  %8 = alloca %struct.nettl_file_hdr, align 2
  %9 = alloca i32, align 4
  store ptr %0, ptr %5, align 8
  store ptr %1, ptr %6, align 8
  store ptr %2, ptr %7, align 8
  call void @llvm.lifetime.start.p0(i64 128, ptr %8) #12
  %10 = load ptr, ptr %5, align 8
  %11 = getelementptr inbounds nuw %struct.wtap_dumper, ptr %10, i32 0, i32 10
  store ptr @nettl_dump, ptr %11, align 8
  %12 = call ptr @memset.inline(ptr noundef %8, i32 noundef 0, i64 noundef 128) #12
  %13 = getelementptr inbounds nuw %struct.nettl_file_hdr, ptr %8, i32 0, i32 0
  %14 = getelementptr inbounds [12 x i8], ptr %13, i64 0, i64 0
  %15 = call ptr @memcpy.inline(ptr noundef %14, ptr noundef @nettl_magic_hpux10, i64 noundef 12) #12
  %16 = getelementptr inbounds nuw %struct.nettl_file_hdr, ptr %8, i32 0, i32 1
  %17 = getelementptr inbounds [56 x i8], ptr %16, i64 0, i64 0
  %18 = call i64 @g_strlcpy(ptr noundef %17, ptr noundef @.str.10, i64 noundef 56)
  %19 = getelementptr inbounds nuw %struct.nettl_file_hdr, ptr %8, i32 0, i32 2
  %20 = getelementptr inbounds [20 x i8], ptr %19, i64 0, i64 0
  %21 = call i64 @g_strlcpy(ptr noundef %20, ptr noundef @.str.11, i64 noundef 20)
  %22 = getelementptr inbounds nuw %struct.nettl_file_hdr, ptr %8, i32 0, i32 3
  %23 = getelementptr inbounds [9 x i8], ptr %22, i64 0, i64 0
  %24 = call i64 @g_strlcpy(ptr noundef %23, ptr noundef @.str.12, i64 noundef 9)
  %25 = getelementptr inbounds nuw %struct.nettl_file_hdr, ptr %8, i32 0, i32 4
  %26 = getelementptr inbounds [9 x i8], ptr %25, i64 0, i64 0
  %27 = call i64 @g_strlcpy(ptr noundef %26, ptr noundef @.str.13, i64 noundef 9)
  %28 = getelementptr inbounds nuw %struct.nettl_file_hdr, ptr %8, i32 0, i32 5
  store i8 85, ptr %28, align 2
  %29 = getelementptr inbounds nuw %struct.nettl_file_hdr, ptr %8, i32 0, i32 7
  %30 = getelementptr inbounds [11 x i8], ptr %29, i64 0, i64 0
  %31 = call i64 @g_strlcpy(ptr noundef %30, ptr noundef @.str.14, i64 noundef 11)
  %32 = getelementptr inbounds nuw %struct.nettl_file_hdr, ptr %8, i32 0, i32 8
  store i16 1540, ptr %32, align 2
  %33 = load ptr, ptr %5, align 8
  %34 = load ptr, ptr %6, align 8
  %35 = call zeroext i1 @wtap_dump_file_write(ptr noundef %33, ptr noundef %8, i64 noundef 128, ptr noundef %34)
  br i1 %35, label %37, label %36

36:                                               ; preds = %3
  store i1 false, ptr %4, align 1
  store i32 1, ptr %9, align 4
  br label %38

37:                                               ; preds = %3
  store i1 true, ptr %4, align 1
  store i32 1, ptr %9, align 4
  br label %38

38:                                               ; preds = %37, %36
  call void @llvm.lifetime.end.p0(i64 128, ptr %8) #12
  %39 = load i1, ptr %4, align 1
  ret i1 %39
}