; Function Attrs: null_pointer_is_valid sspstrong uwtable
define internal zeroext i1 @nettl_dump_open(ptr noundef initializes((64, 72)) %0, ptr noundef %1, ptr readnone captures(none) %2) #0 {
  %4 = alloca %struct.nettl_file_hdr, align 2
  call void @llvm.lifetime.start.p0(i64 128, ptr nonnull %4) #9
  %5 = getelementptr inbounds nuw i8, ptr %0, i64 64
  store ptr @nettl_dump, ptr %5, align 8
  %6 = getelementptr inbounds nuw i8, ptr %4, i64 12
  call void @llvm.memset.p0.i64(ptr noundef nonnull align 2 dereferenceable(116) %6, i8 0, i64 116, i1 false)
  call void @llvm.memcpy.p0.p0.i64(ptr noundef nonnull align 2 dereferenceable(12) %4, ptr noundef nonnull align 1 dereferenceable(12) @nettl_magic_hpux10, i64 noundef 12, i1 noundef false) #9
  %7 = getelementptr inbounds nuw i8, ptr %4, i64 12
  %8 = call i64 @g_strlcpy(ptr noundef nonnull %7, ptr noundef nonnull @.str.10, i64 noundef 56)
  %9 = getelementptr inbounds nuw i8, ptr %4, i64 68
  %10 = call i64 @g_strlcpy(ptr noundef nonnull %9, ptr noundef nonnull @.str.11, i64 noundef 20)
  %11 = getelementptr inbounds nuw i8, ptr %4, i64 88
  %12 = call i64 @g_strlcpy(ptr noundef nonnull %11, ptr noundef nonnull @.str.12, i64 noundef 9)
  %13 = getelementptr inbounds nuw i8, ptr %4, i64 97
  %14 = call i64 @g_strlcpy(ptr noundef nonnull %13, ptr noundef nonnull @.str.13, i64 noundef 9)
  %15 = getelementptr inbounds nuw i8, ptr %4, i64 106
  store i8 85, ptr %15, align 2
  %16 = getelementptr inbounds nuw i8, ptr %4, i64 115
  %17 = call i64 @g_strlcpy(ptr noundef nonnull %16, ptr noundef nonnull @.str.14, i64 noundef 11)
  %18 = getelementptr inbounds nuw i8, ptr %4, i64 126
  store i16 1540, ptr %18, align 2
  %19 = call zeroext i1 @wtap_dump_file_write(ptr noundef %0, ptr noundef nonnull %4, i64 noundef 128, ptr noundef %1)
  call void @llvm.lifetime.end.p0(i64 128, ptr nonnull %4) #9
  ret i1 %19
}